; Function Attrs: mustprogress nofree norecurse nosync nounwind willreturn memory(read, inaccessiblemem: none) uwtable
define hidden noundef zeroext i1 @_ZNK3euf5enode7acyclicEv(ptr noundef nonnull readonly align 8 captures(address) dereferenceable(176) %0) local_unnamed_addr #5 align 2 {
  br label %2

2:                                                ; preds = %11, %1
  %.09 = phi ptr [ %0, %1 ], [ %.110, %11 ]
  %.0 = phi ptr [ %0, %1 ], [ %.1, %11 ]
  %.not = icmp eq ptr %.09, null
  br i1 %.not, label %13, label %3

3:                                                ; preds = %2
  %4 = getelementptr inbounds nuw i8, ptr %.09, i64 72
  %5 = load ptr, ptr %4, align 8, !tbaa !25
  %.not14 = icmp eq ptr %5, null
  br i1 %.not14, label %11, label %6

6:                                                ; preds = %3
  %7 = getelementptr inbounds nuw i8, ptr %.0, i64 72
  %8 = load ptr, ptr %7, align 8, !tbaa !25
  %9 = getelementptr inbounds nuw i8, ptr %5, i64 72
  %10 = load ptr, ptr %9, align 8, !tbaa !25
  br label %11

11:                                               ; preds = %6, %3
  %.110 = phi ptr [ %10, %6 ], [ null, %3 ]
  %.1 = phi ptr [ %8, %6 ], [ %.0, %3 ]
  %12 = icmp eq ptr %.110, %.1
  br i1 %12, label %13, label %2, !llvm.loop !45

13:                                               ; preds = %2, %11
  ret i1 %.not
}